target datalayout = "e-m:e-p270:32:32-p271:32:32-p272:64:64-i64:64-i128:128-f80:128-n8:16:32:64-S128"
target triple = "x86_64-pc-linux-gnu"

%struct.btMiniSDF = type { %struct.btAlignedBox3d, [3 x i32], %class.btVector3, %class.btVector3, i64, i64, i8, [7 x i8], %class.btAlignedObjectArray, %class.btAlignedObjectArray.0, %class.btAlignedObjectArray.2 }
%struct.btAlignedBox3d = type { %class.btVector3, %class.btVector3 }
%class.btVector3 = type { [4 x float] }
%class.btAlignedObjectArray = type <{ [4 x i8], i32, i32, [4 x i8], ptr, i8, [7 x i8] }>
%class.btAlignedObjectArray.0 = type <{ [4 x i8], i32, i32, [4 x i8], ptr, i8, [7 x i8] }>
%class.btAlignedObjectArray.2 = type <{ [4 x i8], i32, i32, [4 x i8], ptr, i8, [7 x i8] }>
%struct.btMultiIndex = type { [3 x i32] }

; Function Attrs: inlinehint mustprogress nounwind uwtable
define linkonce_odr dso_local void @_ZN9btVector3C2ERKfS1_S1_(ptr noundef nonnull align 4 dereferenceable(16) %0, ptr noundef nonnull align 4 dereferenceable(4) %1, ptr noundef nonnull align 4 dereferenceable(4) %2, ptr noundef nonnull align 4 dereferenceable(4) %3) unnamed_addr #4 comdat align 2 {
  %5 = alloca ptr, align 8
  %6 = alloca ptr, align 8
  %7 = alloca ptr, align 8
  %8 = alloca ptr, align 8
  store ptr %0, ptr %5, align 8, !tbaa !64
  store ptr %1, ptr %6, align 8, !tbaa !118
  store ptr %2, ptr %7, align 8, !tbaa !118
  store ptr %3, ptr %8, align 8, !tbaa !118
  %9 = load ptr, ptr %5, align 8
  %10 = load ptr, ptr %6, align 8, !tbaa !118
  %11 = load float, ptr %10, align 4, !tbaa !18
  %12 = getelementptr inbounds nuw %class.btVector3, ptr %9, i32 0, i32 0
  %13 = getelementptr inbounds [4 x float], ptr %12, i64 0, i64 0
  store float %11, ptr %13, align 4, !tbaa !18
  %14 = load ptr, ptr %7, align 8, !tbaa !118
  %15 = load float, ptr %14, align 4, !tbaa !18
  %16 = getelementptr inbounds nuw %class.btVector3, ptr %9, i32 0, i32 0
  %17 = getelementptr inbounds [4 x float], ptr %16, i64 0, i64 1
  store float %15, ptr %17, align 4, !tbaa !18
  %18 = load ptr, ptr %8, align 8, !tbaa !118
  %19 = load float, ptr %18, align 4, !tbaa !18
  %20 = getelementptr inbounds nuw %class.btVector3, ptr %9, i32 0, i32 0
  %21 = getelementptr inbounds [4 x float], ptr %20, i64 0, i64 2
  store float %19, ptr %21, align 4, !tbaa !18
  %22 = getelementptr inbounds nuw %class.btVector3, ptr %9, i32 0, i32 0
  %23 = getelementptr inbounds [4 x float], ptr %22, i64 0, i64 3
  store float 0.000000e+00, ptr %23, align 4, !tbaa !18
  ret void
}

; Function Attrs: mustprogress nounwind uwtable
define linkonce_odr dso_local void @_ZN14btAlignedBox3dC2ERK9btVector3S2_(ptr noundef nonnull align 4 dereferenceable(32) %0, ptr noundef nonnull align 4 dereferenceable(16) %1, ptr noundef nonnull align 4 dereferenceable(16) %2) unnamed_addr #1 comdat align 2 {
  %4 = alloca ptr, align 8
  %5 = alloca ptr, align 8
  %6 = alloca ptr, align 8
  store ptr %0, ptr %4, align 8, !tbaa !107
  store ptr %1, ptr %5, align 8, !tbaa !64
  store ptr %2, ptr %6, align 8, !tbaa !64
  %7 = load ptr, ptr %4, align 8
  %8 = getelementptr inbounds nuw %struct.btAlignedBox3d, ptr %7, i32 0, i32 0
  %9 = load ptr, ptr %5, align 8, !tbaa !64
  call void @llvm.memcpy.p0.p0.i64(ptr align 4 %8, ptr align 4 %9, i64 16, i1 false), !tbaa.struct !109
  %10 = getelementptr inbounds nuw %struct.btAlignedBox3d, ptr %7, i32 0, i32 1
  %11 = load ptr, ptr %6, align 8, !tbaa !64
  call void @llvm.memcpy.p0.p0.i64(ptr align 4 %10, ptr align 4 %11, i64 16, i1 false), !tbaa.struct !109
  ret void
}

; Function Attrs: inlinehint mustprogress uwtable
define linkonce_odr dso_local { <2 x float>, <2 x float> } @_ZplRK9btVector3S1_(ptr noundef nonnull align 4 dereferenceable(16) %0, ptr noundef nonnull align 4 dereferenceable(16) %1) #5 comdat {
  %3 = alloca %class.btVector3, align 4
  %4 = alloca ptr, align 8
  %5 = alloca ptr, align 8
  %6 = alloca float, align 4
  %7 = alloca float, align 4
  %8 = alloca float, align 4
  store ptr %0, ptr %4, align 8, !tbaa !64
  store ptr %1, ptr %5, align 8, !tbaa !64
  call void @llvm.lifetime.start.p0(i64 4, ptr %6) #12
  %9 = load ptr, ptr %4, align 8, !tbaa !64
  %10 = getelementptr inbounds nuw %class.btVector3, ptr %9, i32 0, i32 0
  %11 = getelementptr inbounds [4 x float], ptr %10, i64 0, i64 0
  %12 = load float, ptr %11, align 4, !tbaa !18
  %13 = load ptr, ptr %5, align 8, !tbaa !64
  %14 = getelementptr inbounds nuw %class.btVector3, ptr %13, i32 0, i32 0
  %15 = getelementptr inbounds [4 x float], ptr %14, i64 0, i64 0
  %16 = load float, ptr %15, align 4, !tbaa !18
  %17 = fadd float %12, %16
  store float %17, ptr %6, align 4, !tbaa !18
  call void @llvm.lifetime.start.p0(i64 4, ptr %7) #12
  %18 = load ptr, ptr %4, align 8, !tbaa !64
  %19 = getelementptr inbounds nuw %class.btVector3, ptr %18, i32 0, i32 0
  %20 = getelementptr inbounds [4 x float], ptr %19, i64 0, i64 1
  %21 = load float, ptr %20, align 4, !tbaa !18
  %22 = load ptr, ptr %5, align 8, !tbaa !64
  %23 = getelementptr inbounds nuw %class.btVector3, ptr %22, i32 0, i32 0
  %24 = getelementptr inbounds [4 x float], ptr %23, i64 0, i64 1
  %25 = load float, ptr %24, align 4, !tbaa !18
  %26 = fadd float %21, %25
  store float %26, ptr %7, align 4, !tbaa !18
  call void @llvm.lifetime.start.p0(i64 4, ptr %8) #12
  %27 = load ptr, ptr %4, align 8, !tbaa !64
  %28 = getelementptr inbounds nuw %class.btVector3, ptr %27, i32 0, i32 0
  %29 = getelementptr inbounds [4 x float], ptr %28, i64 0, i64 2
  %30 = load float, ptr %29, align 4, !tbaa !18
  %31 = load ptr, ptr %5, align 8, !tbaa !64
  %32 = getelementptr inbounds nuw %class.btVector3, ptr %31, i32 0, i32 0
  %33 = getelementptr inbounds [4 x float], ptr %32, i64 0, i64 2
  %34 = load float, ptr %33, align 4, !tbaa !18
  %35 = fadd float %30, %34
  store float %35, ptr %8, align 4, !tbaa !18
  call void @_ZN9btVector3C2ERKfS1_S1_(ptr noundef nonnull align 4 dereferenceable(16) %3, ptr noundef nonnull align 4 dereferenceable(4) %6, ptr noundef nonnull align 4 dereferenceable(4) %7, ptr noundef nonnull align 4 dereferenceable(4) %8)
  call void @llvm.lifetime.end.p0(i64 4, ptr %8) #12
  call void @llvm.lifetime.end.p0(i64 4, ptr %7) #12
  call void @llvm.lifetime.end.p0(i64 4, ptr %6) #12
  %36 = getelementptr inbounds nuw %class.btVector3, ptr %3, i32 0, i32 0
  %37 = load { <2 x float>, <2 x float> }, ptr %36, align 4
  ret { <2 x float>, <2 x float> } %37
}

; Function Attrs: mustprogress nounwind uwtable
define linkonce_odr dso_local noundef nonnull align 4 dereferenceable(16) ptr @_ZNK14btAlignedBox3d3minEv(ptr noundef nonnull align 4 dereferenceable(32) %0) #1 comdat align 2 {
  %2 = alloca ptr, align 8
  store ptr %0, ptr %2, align 8, !tbaa !107
  %3 = load ptr, ptr %2, align 8
  %4 = getelementptr inbounds nuw %struct.btAlignedBox3d, ptr %3, i32 0, i32 0
  ret ptr %4
}

; Function Attrs: inlinehint mustprogress nounwind uwtable
define linkonce_odr dso_local noundef ptr @_ZNK9btVector3cvPKfEv(ptr noundef nonnull align 4 dereferenceable(16) %0) #4 comdat align 2 {
  %2 = alloca ptr, align 8
  store ptr %0, ptr %2, align 8, !tbaa !64
  %3 = load ptr, ptr %2, align 8
  %4 = getelementptr inbounds nuw %class.btVector3, ptr %3, i32 0, i32 0
  %5 = getelementptr inbounds [4 x float], ptr %4, i64 0, i64 0
  ret ptr %5
}

; Function Attrs: inlinehint mustprogress nounwind uwtable
define linkonce_odr dso_local void @_ZN9btVector3C2Ev(ptr noundef nonnull align 4 dereferenceable(16) %0) unnamed_addr #4 comdat align 2 {
  %2 = alloca ptr, align 8
  store ptr %0, ptr %2, align 8, !tbaa !64
  ret void
}

; Function Attrs: mustprogress uwtable
define dso_local void @_ZNK9btMiniSDF9subdomainERK12btMultiIndex(ptr dead_on_unwind noalias writable sret(%struct.btAlignedBox3d) align 4 %0, ptr noundef nonnull align 8 dereferenceable(200) %1, ptr noundef nonnull align 4 dereferenceable(12) %2) #7 align 2 {
  %4 = alloca ptr, align 8
  %5 = alloca ptr, align 8
  %6 = alloca %class.btVector3, align 4
  %7 = alloca %class.btVector3, align 4
  %8 = alloca %class.btVector3, align 4
  store ptr %1, ptr %4, align 8, !tbaa !12
  store ptr %2, ptr %5, align 8, !tbaa !105
  %9 = load ptr, ptr %4, align 8
  call void @llvm.lifetime.start.p0(i64 16, ptr %6) #12
  call void @_ZN9btVector3C2Ev(ptr noundef nonnull align 4 dereferenceable(16) %6)
  %10 = getelementptr inbounds nuw %struct.btMiniSDF, ptr %9, i32 0, i32 2
  %11 = call noundef ptr @_ZNK9btVector3cvPKfEv(ptr noundef nonnull align 4 dereferenceable(16) %10)
  %12 = getelementptr inbounds float, ptr %11, i64 0
  %13 = load float, ptr %12, align 4, !tbaa !18
  %14 = fpext float %13 to double
  %15 = load ptr, ptr %5, align 8, !tbaa !105
  %16 = getelementptr inbounds nuw %struct.btMultiIndex, ptr %15, i32 0, i32 0
  %17 = getelementptr inbounds [3 x i32], ptr %16, i64 0, i64 0
  %18 = load i32, ptr %17, align 4, !tbaa !9
  %19 = uitofp i32 %18 to double
  %20 = fmul double %14, %19
  %21 = fptrunc double %20 to float
  %22 = getelementptr inbounds nuw %class.btVector3, ptr %6, i32 0, i32 0
  %23 = getelementptr inbounds [4 x float], ptr %22, i64 0, i64 0
  store float %21, ptr %23, align 4, !tbaa !18
  %24 = getelementptr inbounds nuw %struct.btMiniSDF, ptr %9, i32 0, i32 2
  %25 = call noundef ptr @_ZNK9btVector3cvPKfEv(ptr noundef nonnull align 4 dereferenceable(16) %24)
  %26 = getelementptr inbounds float, ptr %25, i64 1
  %27 = load float, ptr %26, align 4, !tbaa !18
  %28 = fpext float %27 to double
  %29 = load ptr, ptr %5, align 8, !tbaa !105
  %30 = getelementptr inbounds nuw %struct.btMultiIndex, ptr %29, i32 0, i32 0
  %31 = getelementptr inbounds [3 x i32], ptr %30, i64 0, i64 1
  %32 = load i32, ptr %31, align 4, !tbaa !9
  %33 = uitofp i32 %32 to double
  %34 = fmul double %28, %33
  %35 = fptrunc double %34 to float
  %36 = getelementptr inbounds nuw %class.btVector3, ptr %6, i32 0, i32 0
  %37 = getelementptr inbounds [4 x float], ptr %36, i64 0, i64 1
  store float %35, ptr %37, align 4, !tbaa !18
  %38 = getelementptr inbounds nuw %struct.btMiniSDF, ptr %9, i32 0, i32 2
  %39 = call noundef ptr @_ZNK9btVector3cvPKfEv(ptr noundef nonnull align 4 dereferenceable(16) %38)
  %40 = getelementptr inbounds float, ptr %39, i64 2
  %41 = load float, ptr %40, align 4, !tbaa !18
  %42 = fpext float %41 to double
  %43 = load ptr, ptr %5, align 8, !tbaa !105
  %44 = getelementptr inbounds nuw %struct.btMultiIndex, ptr %43, i32 0, i32 0
  %45 = getelementptr inbounds [3 x i32], ptr %44, i64 0, i64 2
  %46 = load i32, ptr %45, align 4, !tbaa !9
  %47 = uitofp i32 %46 to double
  %48 = fmul double %42, %47
  %49 = fptrunc double %48 to float
  %50 = getelementptr inbounds nuw %class.btVector3, ptr %6, i32 0, i32 0
  %51 = getelementptr inbounds [4 x float], ptr %50, i64 0, i64 2
  store float %49, ptr %51, align 4, !tbaa !18
  call void @llvm.lifetime.start.p0(i64 16, ptr %7) #12
  %52 = getelementptr inbounds nuw %struct.btMiniSDF, ptr %9, i32 0, i32 0
  %53 = call noundef nonnull align 4 dereferenceable(16) ptr @_ZNK14btAlignedBox3d3minEv(ptr noundef nonnull align 4 dereferenceable(32) %52)
  %54 = call { <2 x float>, <2 x float> } @_ZplRK9btVector3S1_(ptr noundef nonnull align 4 dereferenceable(16) %53, ptr noundef nonnull align 4 dereferenceable(16) %6)
  %55 = getelementptr inbounds nuw %class.btVector3, ptr %7, i32 0, i32 0
  %56 = getelementptr inbounds nuw { <2 x float>, <2 x float> }, ptr %55, i32 0, i32 0
  %57 = extractvalue { <2 x float>, <2 x float> } %54, 0
  store <2 x float> %57, ptr %56, align 4
  %58 = getelementptr inbounds nuw { <2 x float>, <2 x float> }, ptr %55, i32 0, i32 1
  %59 = extractvalue { <2 x float>, <2 x float> } %54, 1
  store <2 x float> %59, ptr %58, align 4
  call void @llvm.lifetime.start.p0(i64 16, ptr %8) #12
  %60 = getelementptr inbounds nuw %struct.btMiniSDF, ptr %9, i32 0, i32 2
  %61 = call { <2 x float>, <2 x float> } @_ZplRK9btVector3S1_(ptr noundef nonnull align 4 dereferenceable(16) %7, ptr noundef nonnull align 4 dereferenceable(16) %60)
  %62 = getelementptr inbounds nuw %class.btVector3, ptr %8, i32 0, i32 0
  %63 = getelementptr inbounds nuw { <2 x float>, <2 x float> }, ptr %62, i32 0, i32 0
  %64 = extractvalue { <2 x float>, <2 x float> } %61, 0
  store <2 x float> %64, ptr %63, align 4
  %65 = getelementptr inbounds nuw { <2 x float>, <2 x float> }, ptr %62, i32 0, i32 1
  %66 = extractvalue { <2 x float>, <2 x float> } %61, 1
  store <2 x float> %66, ptr %65, align 4
  call void @_ZN14btAlignedBox3dC2ERK9btVector3S2_(ptr noundef nonnull align 4 dereferenceable(32) %0, ptr noundef nonnull align 4 dereferenceable(16) %7, ptr noundef nonnull align 4 dereferenceable(16) %8)
  call void @llvm.lifetime.end.p0(i64 16, ptr %8) #12
  call void @llvm.lifetime.end.p0(i64 16, ptr %7) #12
  call void @llvm.lifetime.end.p0(i64 16, ptr %6) #12
  ret void
}