; Function Attrs: mustprogress nofree norecurse nosync nounwind willreturn memory(argmem: readwrite) uwtable
define dso_local void @_ZNK9btMiniSDF9subdomainERK12btMultiIndex(ptr dead_on_unwind noalias writable writeonly sret(%struct.btAlignedBox3d) align 4 captures(none) initializes((0, 32)) %0, ptr noundef nonnull readonly align 8 captures(none) dereferenceable(200) %1, ptr noundef nonnull readonly align 4 captures(none) dereferenceable(12) %2) local_unnamed_addr #6 align 2 {
  %4 = getelementptr inbounds nuw i8, ptr %1, i64 44
  %5 = load float, ptr %4, align 4, !tbaa !4
  %6 = fpext float %5 to double
  %7 = load i32, ptr %2, align 4, !tbaa !8
  %8 = uitofp i32 %7 to double
  %9 = fmul double %6, %8
  %10 = fptrunc double %9 to float
  %11 = getelementptr inbounds nuw i8, ptr %1, i64 48
  %12 = load float, ptr %11, align 8, !tbaa !4
  %13 = fpext float %12 to double
  %14 = getelementptr inbounds nuw i8, ptr %2, i64 4
  %15 = load i32, ptr %14, align 4, !tbaa !8
  %16 = uitofp i32 %15 to double
  %17 = fmul double %13, %16
  %18 = fptrunc double %17 to float
  %19 = getelementptr inbounds nuw i8, ptr %1, i64 52
  %20 = load float, ptr %19, align 4, !tbaa !4
  %21 = fpext float %20 to double
  %22 = getelementptr inbounds nuw i8, ptr %2, i64 8
  %23 = load i32, ptr %22, align 4, !tbaa !8
  %24 = uitofp i32 %23 to double
  %25 = fmul double %21, %24
  %26 = fptrunc double %25 to float
  %27 = load float, ptr %1, align 8, !tbaa !4
  %28 = fadd float %27, %10
  %29 = getelementptr inbounds nuw i8, ptr %1, i64 4
  %30 = load float, ptr %29, align 4, !tbaa !4
  %31 = fadd float %30, %18
  %32 = getelementptr inbounds nuw i8, ptr %1, i64 8
  %33 = load float, ptr %32, align 8, !tbaa !4
  %34 = fadd float %33, %26
  %.sroa.0.0.vec.insert.i = insertelement <2 x float> poison, float %28, i64 0
  %.sroa.0.4.vec.insert.i = insertelement <2 x float> %.sroa.0.0.vec.insert.i, float %31, i64 1
  %.sroa.3.12.vec.insert.i = insertelement <2 x float> <float poison, float 0.000000e+00>, float %34, i64 0
  %35 = fadd float %5, %28
  %36 = fadd float %12, %31
  %37 = fadd float %20, %34
  %.sroa.0.0.vec.insert.i4 = insertelement <2 x float> poison, float %35, i64 0
  %.sroa.0.4.vec.insert.i5 = insertelement <2 x float> %.sroa.0.0.vec.insert.i4, float %36, i64 1
  %.sroa.3.12.vec.insert.i6 = insertelement <2 x float> <float poison, float 0.000000e+00>, float %37, i64 0
  store <2 x float> %.sroa.0.4.vec.insert.i, ptr %0, align 4
  %.sroa.6.0..sroa_idx = getelementptr inbounds nuw i8, ptr %0, i64 8
  store <2 x float> %.sroa.3.12.vec.insert.i, ptr %.sroa.6.0..sroa_idx, align 4, !tbaa !60
  %38 = getelementptr inbounds nuw i8, ptr %0, i64 16
  store <2 x float> %.sroa.0.4.vec.insert.i5, ptr %38, align 4
  %.sroa.4.0..sroa_idx = getelementptr inbounds nuw i8, ptr %0, i64 24
  store <2 x float> %.sroa.3.12.vec.insert.i6, ptr %.sroa.4.0..sroa_idx, align 4, !tbaa !60
  ret void
}